target datalayout = "e-m:e-p270:32:32-p271:32:32-p272:64:64-i64:64-i128:128-f80:128-n8:16:32:64-S128"
target triple = "x86_64-pc-linux-gnu"

%struct.text_import_info_t = type { ptr, ptr, i32, %struct.anon, %struct.anon.0, ptr, i32, ptr, i32, i32, i8, %union.anon, %union.anon.1, i32, i32, i32, i32, i32, ptr, i32, i32, i32 }
%struct.anon = type { ptr, i32, i8, i8, i8 }
%struct.anon.0 = type { ptr, ptr, i32, ptr, ptr }
%union.anon = type { i32, [12 x i8] }
%union.anon.1 = type { i32, [12 x i8] }

@packet_buf = internal global ptr null, align 8
@curr_offset = internal global i32 0, align 4
@info_p = internal global ptr null, align 8

; Function Attrs: null_pointer_is_valid sspstrong uwtable
define internal i32 @write_bytes(ptr noundef %0) #0 {
  %2 = alloca i32, align 4
  %3 = alloca ptr, align 8
  %4 = alloca i32, align 4
  %5 = alloca i32, align 4
  %6 = alloca i32, align 4
  %7 = alloca i32, align 4
  %8 = alloca i32, align 4
  store ptr %0, ptr %3, align 8
  call void @llvm.lifetime.start.p0(i64 4, ptr %4) #15
  %9 = load ptr, ptr %3, align 8
  %10 = call i32 @parse_num(ptr noundef %9, i32 noundef 0, ptr noundef %4)
  %11 = icmp ne i32 %10, 0
  br i1 %11, label %12, label %13

12:                                               ; preds = %1
  store i32 1, ptr %2, align 4
  store i32 1, ptr %5, align 4
  br label %95

13:                                               ; preds = %1
  call void @llvm.lifetime.start.p0(i64 4, ptr %6) #15
  %14 = load ptr, ptr %3, align 8
  %15 = call i64 @strlen(ptr noundef %14) #16
  %16 = trunc i64 %15 to i32
  store i32 %16, ptr %6, align 4
  %17 = load ptr, ptr @info_p, align 8
  %18 = getelementptr inbounds nuw %struct.text_import_info_t, ptr %17, i32 0, i32 3
  %19 = getelementptr inbounds nuw %struct.anon, ptr %18, i32 0, i32 4
  %20 = load i8, ptr %19, align 2, !range !10, !noundef !11
  %21 = trunc i8 %20 to i1
  br i1 %21, label %22, label %57

22:                                               ; preds = %13
  call void @llvm.lifetime.start.p0(i64 4, ptr %7) #15
  store i32 0, ptr %7, align 4
  br label %23

23:                                               ; preds = %51, %22
  %24 = load i32, ptr %7, align 4
  %25 = load i32, ptr %6, align 4
  %26 = mul i32 4, %25
  %27 = icmp slt i32 %24, %26
  br i1 %27, label %29, label %28

28:                                               ; preds = %23
  store i32 2, ptr %5, align 4
  br label %54

29:                                               ; preds = %23
  %30 = load i32, ptr %4, align 4
  %31 = load i32, ptr %7, align 4
  %32 = lshr i32 %30, %31
  %33 = trunc i32 %32 to i8
  %34 = load ptr, ptr @packet_buf, align 8
  %35 = load i32, ptr @curr_offset, align 4
  %36 = zext i32 %35 to i64
  %37 = getelementptr i8, ptr %34, i64 %36
  store i8 %33, ptr %37, align 1
  %38 = load i32, ptr @curr_offset, align 4
  %39 = add i32 %38, 1
  store i32 %39, ptr @curr_offset, align 4
  %40 = load i32, ptr @curr_offset, align 4
  %41 = load ptr, ptr @info_p, align 8
  %42 = getelementptr inbounds nuw %struct.text_import_info_t, ptr %41, i32 0, i32 19
  %43 = load i32, ptr %42, align 8
  %44 = icmp uge i32 %40, %43
  br i1 %44, label %45, label %50

45:                                               ; preds = %29
  %46 = call i32 @start_new_packet(i1 noundef zeroext true)
  %47 = icmp ne i32 %46, 0
  br i1 %47, label %48, label %49

48:                                               ; preds = %45
  store i32 1, ptr %2, align 4
  store i32 1, ptr %5, align 4
  br label %54

49:                                               ; preds = %45
  br label %50

50:                                               ; preds = %49, %29
  br label %51

51:                                               ; preds = %50
  %52 = load i32, ptr %7, align 4
  %53 = add i32 %52, 8
  store i32 %53, ptr %7, align 4
  br label %23, !llvm.loop !32

54:                                               ; preds = %48, %28
  call void @llvm.lifetime.end.p0(i64 4, ptr %7) #15
  %55 = load i32, ptr %5, align 4
  switch i32 %55, label %94 [
    i32 2, label %56
  ]

56:                                               ; preds = %54
  br label %93

57:                                               ; preds = %13
  call void @llvm.lifetime.start.p0(i64 4, ptr %8) #15
  %58 = load i32, ptr %6, align 4
  %59 = mul i32 4, %58
  %60 = sub i32 %59, 8
  store i32 %60, ptr %8, align 4
  br label %61

61:                                               ; preds = %87, %57
  %62 = load i32, ptr %8, align 4
  %63 = icmp sge i32 %62, 0
  br i1 %63, label %65, label %64

64:                                               ; preds = %61
  store i32 5, ptr %5, align 4
  br label %90

65:                                               ; preds = %61
  %66 = load i32, ptr %4, align 4
  %67 = load i32, ptr %8, align 4
  %68 = lshr i32 %66, %67
  %69 = trunc i32 %68 to i8
  %70 = load ptr, ptr @packet_buf, align 8
  %71 = load i32, ptr @curr_offset, align 4
  %72 = zext i32 %71 to i64
  %73 = getelementptr i8, ptr %70, i64 %72
  store i8 %69, ptr %73, align 1
  %74 = load i32, ptr @curr_offset, align 4
  %75 = add i32 %74, 1
  store i32 %75, ptr @curr_offset, align 4
  %76 = load i32, ptr @curr_offset, align 4
  %77 = load ptr, ptr @info_p, align 8
  %78 = getelementptr inbounds nuw %struct.text_import_info_t, ptr %77, i32 0, i32 19
  %79 = load i32, ptr %78, align 8
  %80 = icmp uge i32 %76, %79
  br i1 %80, label %81, label %86

81:                                               ; preds = %65
  %82 = call i32 @start_new_packet(i1 noundef zeroext true)
  %83 = icmp ne i32 %82, 0
  br i1 %83, label %84, label %85

84:                                               ; preds = %81
  store i32 1, ptr %2, align 4
  store i32 1, ptr %5, align 4
  br label %90

85:                                               ; preds = %81
  br label %86

86:                                               ; preds = %85, %65
  br label %87

87:                                               ; preds = %86
  %88 = load i32, ptr %8, align 4
  %89 = sub i32 %88, 8
  store i32 %89, ptr %8, align 4
  br label %61, !llvm.loop !33

90:                                               ; preds = %84, %64
  call void @llvm.lifetime.end.p0(i64 4, ptr %8) #15
  %91 = load i32, ptr %5, align 4
  switch i32 %91, label %94 [
    i32 5, label %92
  ]

92:                                               ; preds = %90
  br label %93

93:                                               ; preds = %92, %56
  store i32 0, ptr %2, align 4
  store i32 1, ptr %5, align 4
  br label %94

94:                                               ; preds = %93, %90, %54
  call void @llvm.lifetime.end.p0(i64 4, ptr %6) #15
  br label %95

95:                                               ; preds = %94, %12
  call void @llvm.lifetime.end.p0(i64 4, ptr %4) #15
  %96 = load i32, ptr %2, align 4
  ret i32 %96
}