; Function Attrs: null_pointer_is_valid sspstrong uwtable
define internal fastcc range(i32 0, 2) i32 @write_bytes(ptr noundef %0) unnamed_addr #0 {
  %2 = alloca i32, align 4
  call void @llvm.lifetime.start.p0(i64 4, ptr nonnull %2) #18
  %3 = call fastcc i32 @parse_num(ptr noundef %0, i32 noundef 0, ptr noundef nonnull %2)
  %.not = icmp eq i32 %3, 0
  br i1 %.not, label %4, label %.critedge

4:                                                ; preds = %1
  %5 = tail call i64 @strlen(ptr noundef %0) #17
  %6 = trunc i64 %5 to i32
  %7 = load ptr, ptr @info_p, align 8
  %8 = getelementptr inbounds nuw i8, ptr %7, i64 38
  %9 = load i8, ptr %8, align 2, !range !10, !noundef !11
  %10 = trunc nuw i8 %9 to i1
  %11 = shl i32 %6, 2
  br i1 %10, label %.preheader, label %31

.preheader:                                       ; preds = %4
  %.not2130 = icmp sgt i32 %11, 0
  br i1 %.not2130, label %.lr.ph32, label %.critedge

.lr.ph32:                                         ; preds = %.preheader
  %12 = load i32, ptr %2, align 4
  %.pre44 = load ptr, ptr @packet_buf, align 8
  %.pre46 = load i32, ptr @curr_offset, align 4
  br label %13

13:                                               ; preds = %.lr.ph32, %26
  %14 = phi ptr [ %7, %.lr.ph32 ], [ %27, %26 ]
  %15 = phi i32 [ %.pre46, %.lr.ph32 ], [ %28, %26 ]
  %16 = phi ptr [ %.pre44, %.lr.ph32 ], [ %29, %26 ]
  %.01331 = phi i32 [ 0, %.lr.ph32 ], [ %30, %26 ]
  %17 = lshr i32 %12, %.01331
  %18 = trunc i32 %17 to i8
  %19 = zext i32 %15 to i64
  %20 = getelementptr i8, ptr %16, i64 %19
  store i8 %18, ptr %20, align 1
  %21 = add i32 %15, 1
  store i32 %21, ptr @curr_offset, align 4
  %22 = getelementptr inbounds nuw i8, ptr %14, i64 176
  %23 = load i32, ptr %22, align 8
  %.not19 = icmp ult i32 %21, %23
  br i1 %.not19, label %26, label %24

24:                                               ; preds = %13
  %25 = tail call fastcc i32 @start_new_packet(i1 noundef zeroext true)
  %.not20 = icmp eq i32 %25, 0
  %.pre43 = load ptr, ptr @packet_buf, align 8
  %.pre45 = load i32, ptr @curr_offset, align 4
  %.pre47 = load ptr, ptr @info_p, align 8
  br i1 %.not20, label %26, label %.critedge

26:                                               ; preds = %13, %24
  %27 = phi ptr [ %14, %13 ], [ %.pre47, %24 ]
  %28 = phi i32 [ %21, %13 ], [ %.pre45, %24 ]
  %29 = phi ptr [ %16, %13 ], [ %.pre43, %24 ]
  %30 = add i32 %.01331, 8
  %.not21 = icmp slt i32 %30, %11
  br i1 %.not21, label %13, label %.critedge, !llvm.loop !33

31:                                               ; preds = %4
  %.026 = add i32 %11, -8
  %32 = icmp slt i32 %.026, 0
  br i1 %32, label %.critedge, label %.lr.ph

.lr.ph:                                           ; preds = %31
  %33 = load i32, ptr %2, align 4
  %.pre38 = load ptr, ptr @packet_buf, align 8
  %.pre40 = load i32, ptr @curr_offset, align 4
  br label %34

34:                                               ; preds = %.lr.ph, %47
  %35 = phi ptr [ %7, %.lr.ph ], [ %48, %47 ]
  %36 = phi i32 [ %.pre40, %.lr.ph ], [ %49, %47 ]
  %37 = phi ptr [ %.pre38, %.lr.ph ], [ %50, %47 ]
  %.027 = phi i32 [ %.026, %.lr.ph ], [ %.0, %47 ]
  %38 = lshr i32 %33, %.027
  %39 = trunc i32 %38 to i8
  %40 = zext i32 %36 to i64
  %41 = getelementptr i8, ptr %37, i64 %40
  store i8 %39, ptr %41, align 1
  %42 = add i32 %36, 1
  store i32 %42, ptr @curr_offset, align 4
  %43 = getelementptr inbounds nuw i8, ptr %35, i64 176
  %44 = load i32, ptr %43, align 8
  %.not17 = icmp ult i32 %42, %44
  br i1 %.not17, label %47, label %45

45:                                               ; preds = %34
  %46 = tail call fastcc i32 @start_new_packet(i1 noundef zeroext true)
  %.not18 = icmp eq i32 %46, 0
  %.pre = load ptr, ptr @packet_buf, align 8
  %.pre39 = load i32, ptr @curr_offset, align 4
  %.pre41 = load ptr, ptr @info_p, align 8
  br i1 %.not18, label %47, label %.critedge

47:                                               ; preds = %34, %45
  %48 = phi ptr [ %35, %34 ], [ %.pre41, %45 ]
  %49 = phi i32 [ %42, %34 ], [ %.pre39, %45 ]
  %50 = phi ptr [ %37, %34 ], [ %.pre, %45 ]
  %.0 = add nsw i32 %.027, -8
  %51 = icmp slt i32 %.027, 8
  br i1 %51, label %.critedge, label %34, !llvm.loop !34

.critedge:                                        ; preds = %45, %47, %24, %26, %31, %.preheader, %1
  %.014 = phi i32 [ 1, %1 ], [ 0, %.preheader ], [ 0, %31 ], [ 1, %24 ], [ 0, %26 ], [ 1, %45 ], [ 0, %47 ]
  call void @llvm.lifetime.end.p0(i64 4, ptr nonnull %2) #18
  ret i32 %.014
}